target datalayout = "e-m:e-p270:32:32-p271:32:32-p272:64:64-i64:64-i128:128-f80:128-n8:16:32:64-S128"
target triple = "x86_64-unknown-linux-gnu"

@.str.321 = private unnamed_addr constant [6 x i8] c"%lluB\00", align 1
@.str.322 = private unnamed_addr constant [6 x i8] c"%.2fK\00", align 1
@.str.323 = private unnamed_addr constant [6 x i8] c"%.2fM\00", align 1
@.str.324 = private unnamed_addr constant [6 x i8] c"%.2fG\00", align 1
@.str.325 = private unnamed_addr constant [6 x i8] c"%.2fT\00", align 1
@.str.326 = private unnamed_addr constant [6 x i8] c"%.2fP\00", align 1

; Function Attrs: nounwind uwtable
define dso_local void @bytesToHuman(ptr noundef %s, i64 noundef %size, i64 noundef %n) #0 {
entry:
  %s.addr = alloca ptr, align 8
  %size.addr = alloca i64, align 8
  %n.addr = alloca i64, align 8
  %d = alloca double, align 8
  store ptr %s, ptr %s.addr, align 8
  store i64 %size, ptr %size.addr, align 8
  store i64 %n, ptr %n.addr, align 8
  %0 = load i64, ptr %n.addr, align 8
  %cmp = icmp ult i64 %0, 1024
  br i1 %cmp, label %if.then, label %if.else

if.then:                                          ; preds = %entry
  %1 = load ptr, ptr %s.addr, align 8
  %2 = load i64, ptr %size.addr, align 8
  %3 = load i64, ptr %n.addr, align 8
  %call = call i32 (ptr, i64, ptr, ...) @snprintf(ptr noundef %1, i64 noundef %2, ptr noundef @.str.321, i64 noundef %3) #13
  br label %if.end38

if.else:                                          ; preds = %entry
  %4 = load i64, ptr %n.addr, align 8
  %cmp1 = icmp ult i64 %4, 1048576
  br i1 %cmp1, label %if.then2, label %if.else4

if.then2:                                         ; preds = %if.else
  %5 = load i64, ptr %n.addr, align 8
  %conv = uitofp i64 %5 to double
  %div = fdiv double %conv, 1.024000e+03
  store double %div, ptr %d, align 8
  %6 = load ptr, ptr %s.addr, align 8
  %7 = load i64, ptr %size.addr, align 8
  %8 = load double, ptr %d, align 8
  %call3 = call i32 (ptr, i64, ptr, ...) @snprintf(ptr noundef %6, i64 noundef %7, ptr noundef @.str.322, double noundef %8) #13
  br label %if.end37

if.else4:                                         ; preds = %if.else
  %9 = load i64, ptr %n.addr, align 8
  %cmp5 = icmp ult i64 %9, 1073741824
  br i1 %cmp5, label %if.then7, label %if.else11

if.then7:                                         ; preds = %if.else4
  %10 = load i64, ptr %n.addr, align 8
  %conv8 = uitofp i64 %10 to double
  %div9 = fdiv double %conv8, 0x4130000000000000
  store double %div9, ptr %d, align 8
  %11 = load ptr, ptr %s.addr, align 8
  %12 = load i64, ptr %size.addr, align 8
  %13 = load double, ptr %d, align 8
  %call10 = call i32 (ptr, i64, ptr, ...) @snprintf(ptr noundef %11, i64 noundef %12, ptr noundef @.str.323, double noundef %13) #13
  br label %if.end36

if.else11:                                        ; preds = %if.else4
  %14 = load i64, ptr %n.addr, align 8
  %cmp12 = icmp ult i64 %14, 1099511627776
  br i1 %cmp12, label %if.then14, label %if.else18

if.then14:                                        ; preds = %if.else11
  %15 = load i64, ptr %n.addr, align 8
  %conv15 = uitofp i64 %15 to double
  %div16 = fdiv double %conv15, 0x41D0000000000000
  store double %div16, ptr %d, align 8
  %16 = load ptr, ptr %s.addr, align 8
  %17 = load i64, ptr %size.addr, align 8
  %18 = load double, ptr %d, align 8
  %call17 = call i32 (ptr, i64, ptr, ...) @snprintf(ptr noundef %16, i64 noundef %17, ptr noundef @.str.324, double noundef %18) #13
  br label %if.end35

if.else18:                                        ; preds = %if.else11
  %19 = load i64, ptr %n.addr, align 8
  %cmp19 = icmp ult i64 %19, 1125899906842624
  br i1 %cmp19, label %if.then21, label %if.else25

if.then21:                                        ; preds = %if.else18
  %20 = load i64, ptr %n.addr, align 8
  %conv22 = uitofp i64 %20 to double
  %div23 = fdiv double %conv22, 0x4270000000000000
  store double %div23, ptr %d, align 8
  %21 = load ptr, ptr %s.addr, align 8
  %22 = load i64, ptr %size.addr, align 8
  %23 = load double, ptr %d, align 8
  %call24 = call i32 (ptr, i64, ptr, ...) @snprintf(ptr noundef %21, i64 noundef %22, ptr noundef @.str.325, double noundef %23) #13
  br label %if.end34

if.else25:                                        ; preds = %if.else18
  %24 = load i64, ptr %n.addr, align 8
  %cmp26 = icmp ult i64 %24, 1152921504606846976
  br i1 %cmp26, label %if.then28, label %if.else32

if.then28:                                        ; preds = %if.else25
  %25 = load i64, ptr %n.addr, align 8
  %conv29 = uitofp i64 %25 to double
  %div30 = fdiv double %conv29, 0x4310000000000000
  store double %div30, ptr %d, align 8
  %26 = load ptr, ptr %s.addr, align 8
  %27 = load i64, ptr %size.addr, align 8
  %28 = load double, ptr %d, align 8
  %call31 = call i32 (ptr, i64, ptr, ...) @snprintf(ptr noundef %26, i64 noundef %27, ptr noundef @.str.326, double noundef %28) #13
  br label %if.end

if.else32:                                        ; preds = %if.else25
  %29 = load ptr, ptr %s.addr, align 8
  %30 = load i64, ptr %size.addr, align 8
  %31 = load i64, ptr %n.addr, align 8
  %call33 = call i32 (ptr, i64, ptr, ...) @snprintf(ptr noundef %29, i64 noundef %30, ptr noundef @.str.321, i64 noundef %31) #13
  br label %if.end

if.end:                                           ; preds = %if.else32, %if.then28
  br label %if.end34

if.end34:                                         ; preds = %if.end, %if.then21
  br label %if.end35

if.end35:                                         ; preds = %if.end34, %if.then14
  br label %if.end36

if.end36:                                         ; preds = %if.end35, %if.then7
  br label %if.end37

if.end37:                                         ; preds = %if.end36, %if.then2
  br label %if.end38

if.end38:                                         ; preds = %if.end37, %if.then
  ret void
}